(dp0
S'jh3322'
p1
(ipeople
Student
p2
(dp3
S'uni'
p4
g1
sS'first_name'
p5
S'Jianming'
p6
sS'name'
p7
S'Huang, Jianming'
p8
sS'email'
p9
S'jh3322@columbia.edu'
p10
sbsS'amc2316'
p11
(ipeople
Student
p12
(dp13
g4
g11
sg5
S'Alix'
p14
sg7
S'Cook, Alix Mary'
p15
sg9
S'amc2316@columbia.edu'
p16
sbsS'ze2113'
p17
(ipeople
Student
p18
(dp19
g4
g17
sg5
S'Zeynep'
p20
sg7
S'Ejder, Zeynep'
p21
sg9
S'ze2113@barnard.edu'
p22
sbsS'jud2101'
p23
(ipeople
Student
p24
(dp25
g4
g23
sg5
S'Jesse'
p26
sg7
S'Depaoli, Jesse Uliana'
p27
sg9
S'jud2101@columbia.edu'
p28
sbsS'zk2178'
p29
(ipeople
Student
p30
(dp31
g4
g29
sg5
S'Zissis'
p32
sg7
S'Konstas, Zissis'
p33
sg9
S'zk2178@columbia.edu'
p34
sbsS'ct2576'
p35
(ipeople
Student
p36
(dp37
g4
g35
sg5
S'Calvin'
p38
sg7
S'Tjandra, Calvin'
p39
sg9
S'ct2576@columbia.edu'
p40
sbsS'ham2129'
p41
(ipeople
Student
p42
(dp43
g4
g41
sg5
S'Hector'
p44
sg7
S'Morantes, Hector'
p45
sg9
S'ham2129@columbia.edu'
p46
sbsS'bjs2135'
p47
(ipeople
Student
p48
(dp49
g4
g47
sg5
S'Brian'
p50
sg7
S'Slakter, Brian Justin'
p51
sg9
S'bjs2135@columbia.edu'
p52
sbsS'na2561'
p53
(ipeople
Student
p54
(dp55
g4
g53
sg5
S'Numit'
p56
sg7
S'Agrawal, Numit'
p57
sg9
S'na2561@columbia.edu'
p58
sbsS'akc2144'
p59
(ipeople
Student
p60
(dp61
g4
g59
sg5
S'Andrea'
p62
sg7
S'Chan, Andrea Kar Woon'
p63
sg9
S'akc2144@columbia.edu'
p64
sbsS'mlm2290'
p65
(ipeople
Student
p66
(dp67
g4
g65
sg5
S'Maximilian'
p68
sg7
S'Miller, Maximilian Louis'
p69
sg9
S'mlm2290@columbia.edu'
p70
sbsS'aa3454'
p71
(ipeople
Student
p72
(dp73
g4
g71
sg5
S'Amel'
p74
sg7
S'Abid, Amel'
p75
sg9
S'aa3454@barnard.edu'
p76
sbsS'jmz2131'
p77
(ipeople
Student
p78
(dp79
g4
g77
sg5
S'Jessica'
p80
sg7
S'Zhao, Jessica Manting'
p81
sg9
S'jmz2131@columbia.edu'
p82
sbsS'ao2444'
p83
(ipeople
Student
p84
(dp85
g4
g83
sg5
S'Alvaro'
p86
sg7
S'Ortiz-Vazquez, Alvaro'
p87
sg9
S'ao2444@columbia.edu'
p88
sbsS'bh2447'
p89
(ipeople
Student
p90
(dp91
g4
g89
sg5
S'Bingyan'
p92
sg7
S'Hu, Bingyan'
p93
sg9
S'bh2447@barnard.edu'
p94
sbsS'tna2107'
p95
(ipeople
Student
p96
(dp97
g4
g95
sg5
S'Thaer'
p98
sg7
S'Al-Sheikh Theeb, Thaer Naser'
p99
sg9
S'tna2107@columbia.edu'
p100
sbsS'btn2105'
p101
(ipeople
Student
p102
(dp103
g4
g101
sg5
S'Bao'
p104
sg7
S'Nguyen, Bao Tram'
p105
sg9
S'btn2105@barnard.edu'
p106
sbsS'jek2175'
p107
(ipeople
Student
p108
(dp109
g4
g107
sg5
S'Justin'
p110
sg7
S'Kung, Justin Evan'
p111
sg9
S'jek2175@columbia.edu'
p112
sbsS'jft2113'
p113
(ipeople
Student
p114
(dp115
g4
g113
sg5
S'John'
p116
sg7
S'Tuddenham, John Francis'
p117
sg9
S'jft2113@columbia.edu'
p118
sbsS'ns2873'
p119
(ipeople
Student
p120
(dp121
g4
g119
sg5
S'Nicole'
p122
sg7
S'Seleme, Nicole'
p123
sg9
S'ns2873@columbia.edu'
p124
sbsS'jc4137'
p125
(ipeople
Student
p126
(dp127
g4
g125
sg5
S'Justin'
p128
sg7
S'Chang, Justin'
p129
sg9
S'jc4137@columbia.edu'
p130
sbsS'az2350'
p131
(ipeople
Student
p132
(dp133
g4
g131
sg5
S'Anne'
p134
sg7
S'Zhang, Anne'
p135
sg9
S'az2350@columbia.edu'
p136
sbsS'abm2165'
p137
(ipeople
Student
p138
(dp139
g4
g137
sg5
S'Akhil'
p140
sg7
S'Mittal, Akhil Badal'
p141
sg9
S'abm2165@columbia.edu'
p142
sbsS'aef2163'
p143
(ipeople
Student
p144
(dp145
g4
g143
sg5
S'Angela'
p146
sg7
S'Filley, Angela Elaine'
p147
sg9
S'aef2163@columbia.edu'
p148
sbsS'ggl2110'
p149
(ipeople
Student
p150
(dp151
g4
g149
sg5
S'Gabriel'
p152
sg7
S'Lu, Gabriel Gong-Lei'
p153
sg9
S'ggl2110@columbia.edu'
p154
sbsS'jsf2150'
p155
(ipeople
Student
p156
(dp157
g4
g155
sg5
S'Jonathon'
p158
sg7
S'Furer, Jonathon Steven'
p159
sg9
S'jsf2150@columbia.edu'
p160
sbsS'njt2116'
p161
(ipeople
Student
p162
(dp163
g4
g161
sg5
S'Nancy'
p164
sg7
S'Thornton, Nancy Jacqueline'
p165
sg9
S'njt2116@columbia.edu'
p166
sbsS'kae2136'
p167
(ipeople
Student
p168
(dp169
g4
g167
sg5
S'Kelly'
p170
sg7
S'Echavarria, Kelly Anne'
p171
sg9
S'kae2136@columbia.edu'
p172
sbsS'aw2810'
p173
(ipeople
Student
p174
(dp175
g4
g173
sg5
S'Angela'
p176
sg7
S'Wang, Angela'
p177
sg9
S'aw2810@columbia.edu'
p178
sbsS'chn2109'
p179
(ipeople
Student
p180
(dp181
g4
g179
sg5
S'Christina'
p182
sg7
S'Nguyen, Christina Ha'
p183
sg9
S'chn2109@columbia.edu'
p184
sbsS'jkk2128'
p185
(ipeople
Student
p186
(dp187
g4
g185
sg5
S'John'
p188
sg7
S'Kotey, John Kotei'
p189
sg9
S'jkk2128@columbia.edu'
p190
sbsS'fyz2'
p191
(ipeople
Student
p192
(dp193
g4
g191
sg5
S'Felix'
p194
sg7
S'Zhou, Felix Yifan'
p195
sg9
S'fyz2@columbia.edu'
p196
sbsS'dlr2146'
p197
(ipeople
Student
p198
(dp199
g4
g197
sg5
S'David'
p200
sg7
S'Rifkin, David L'
p201
sg9
S'dlr2146@columbia.edu'
p202
sbsS'jps2199'
p203
(ipeople
Student
p204
(dp205
g4
g203
sg5
S'Joseph'
p206
sg7
S'Sweeney, Joseph Patrick'
p207
sg9
S'jps2199@columbia.edu'
p208
sbsS'jdp2150'
p209
(ipeople
Student
p210
(dp211
g4
g209
sg5
S'Jeremy'
p212
sg7
S'Pachter, Jeremy David'
p213
sg9
S'jdp2150@columbia.edu'
p214
sbsS'erg2145'
p215
(ipeople
Student
p216
(dp217
g4
g215
sg5
S'Ethan'
p218
sg7
S'Grant, Ethan Robert'
p219
sg9
S'erg2145@columbia.edu'
p220
sbsS'mam2443'
p221
(ipeople
Student
p222
(dp223
g4
g221
sg5
S'Monika'
p224
sg7
S'Mohacsi, Monika Alexandra'
p225
sg9
S'mam2443@columbia.edu'
p226
sbsS'jto2109'
p227
(ipeople
Student
p228
(dp229
g4
g227
sg5
S'Jacquelyn'
p230
sg7
S'Olwell, Jacquelyn Taylor'
p231
sg9
S'jto2109@columbia.edu'
p232
sbsS'mam2447'
p233
(ipeople
Student
p234
(dp235
g4
g233
sg5
S'Madeleine'
p236
sg7
S'McAdams, Madeleine Anne'
p237
sg9
S'mam2447@barnard.edu'
p238
sbsS'mdk2134'
p239
(ipeople
Student
p240
(dp241
g4
g239
sg5
S'Manuel'
p242
sg7
S'Kaeppler, Manuel Dimitri'
p243
sg9
S'mdk2134@columbia.edu'
p244
sbsS'ecz2107'
p245
(ipeople
Student
p246
(dp247
g4
g245
sg5
S'Edward'
p248
sg7
S'Zhang, Edward Chuanzhi'
p249
sg9
S'ecz2107@columbia.edu'
p250
sbsS'mg3416'
p251
(ipeople
Student
p252
(dp253
g4
g251
sg5
S'Maksim'
p254
sg7
S'Grinchenko, Maksim'
p255
sg9
S'mg3416@columbia.edu'
p256
sbsS'kkt2123'
p257
(ipeople
Student
p258
(dp259
g4
g257
sg5
S'Kaushik'
p260
sg7
S'Tiwari, Kaushik Kumar'
p261
sg9
S'kkt2123@columbia.edu'
p262
sbsS'tgb2110'
p263
(ipeople
Student
p264
(dp265
g4
g263
sg5
S'Troy'
p266
sg7
S'Barrett, Troy G'
p267
sg9
S'tgb2110@columbia.edu'
p268
sbsS'urs2102'
p269
(ipeople
Student
p270
(dp271
g4
g269
sg5
S'Uday'
p272
sg7
S'Singh, Uday Raj'
p273
sg9
S'urs2102@columbia.edu'
p274
sbsS'jeb2239'
p275
(ipeople
Student
p276
(dp277
g4
g275
sg5
S'Jonathan'
p278
sg7
S'Barrios, Jonathan Elias'
p279
sg9
S'jeb2239@columbia.edu'
p280
sbsS'ert2123'
p281
(ipeople
Student
p282
(dp283
g4
g281
sg5
S'Evan'
p284
sg7
S'Tarrh, Evan Robert'
p285
sg9
S'ert2123@columbia.edu'
p286
sbsS'kcm11'
p287
(ipeople
Student
p288
(dp289
g4
g287
sg5
S'Kevin'
p290
sg7
S'McDonald, Kevin Charles'
p291
sg9
S'kcm11@columbia.edu'
p292
sbsS'btm2133'
p293
(ipeople
Student
p294
(dp295
g4
g293
sg5
S'Benjamin'
p296
sg7
S'Mickey, Benjamin T'
p297
sg9
S'btm2133@columbia.edu'
p298
sbsS'sab2235'
p299
(ipeople
Student
p300
(dp301
g4
g299
sg5
S'Sasha'
p302
sg7
S'Brenman, Sasha Anne'
p303
sg9
S'sab2235@barnard.edu'
p304
sbsS'jl3963'
p305
(ipeople
Student
p306
(dp307
g4
g305
sg5
S'Jo-Anne'
p308
sg7
S'Loh, Jo-Anne'
p309
sg9
S'jl3963@columbia.edu'
p310
sbsS'jg3439'
p311
(ipeople
Student
p312
(dp313
g4
g311
sg5
S'Jonathan'
p314
sg7
S'Guzman, Jonathan'
p315
sg9
S'jg3439@columbia.edu'
p316
sbsS'sab2229'
p317
(ipeople
Student
p318
(dp319
g4
g317
sg5
S'Sasha'
p320
sg7
S'Beltinova, Sasha Alexandra'
p321
sg9
S'sab2229@columbia.edu'
p322
sbsS'myz2103'
p323
(ipeople
Student
p324
(dp325
g4
g323
sg5
S'Michelle'
p326
sg7
S'Zheng, Michelle Yijia'
p327
sg9
S'myz2103@columbia.edu'
p328
sbsS'gy2206'
p329
(ipeople
Student
p330
(dp331
g4
g329
sg5
S'George'
p332
sg7
S'Yu, George'
p333
sg9
S'gy2206@columbia.edu'
p334
sbsS'tkr2112'
p335
(ipeople
Student
p336
(dp337
g4
g335
sg5
S'Thomas'
p338
sg7
S'Rutten, Thomas Kingman'
p339
sg9
S'tkr2112@columbia.edu'
p340
sbsS'wz2261'
p341
(ipeople
Student
p342
(dp343
g4
g341
sg5
S'Wenjie'
p344
sg7
S'Zhang, Wenjie'
p345
sg9
S'wz2261@columbia.edu'
p346
sbsS'vg2342'
p347
(ipeople
Student
p348
(dp349
g4
g347
sg5
S'Victor'
p350
sg7
S'Genes, Victor Abreu'
p351
sg9
S'vg2342@columbia.edu'
p352
sbsS'ua2144'
p353
(ipeople
Student
p354
(dp355
g4
g353
sg5
S'Uzodinma'
p356
sg7
S'Amuzie, Uzodinma'
p357
sg9
S'ua2144@columbia.edu'
p358
sbsS'cm3186'
p359
(ipeople
Student
p360
(dp361
g4
g359
sg5
S'Chenrui'
p362
sg7
S'Ma, Chenrui'
p363
sg9
S'cm3186@columbia.edu'
p364
sbsS'ksr2129'
p365
(ipeople
Student
p366
(dp367
g4
g365
sg5
S'Kyle'
p368
sg7
S'Reuther, Kyle Scott'
p369
sg9
S'ksr2129@columbia.edu'
p370
sbsS'csw2129'
p371
(ipeople
Student
p372
(dp373
g4
g371
sg5
S'Christine'
p374
sg7
S'Wang, Christine Samantha'
p375
sg9
S'csw2129@columbia.edu'
p376
sbsS'wgb2109'
p377
(ipeople
Student
p378
(dp379
g4
g377
sg5
S'Wade'
p380
sg7
S'Burelbach, Wade Garrett'
p381
sg9
S'wgb2109@columbia.edu'
p382
sbsS'to2240'
p383
(ipeople
Student
p384
(dp385
g4
g383
sg5
S'Tommy'
p386
sg7
S'Orok, Tommy'
p387
sg9
S'to2240@columbia.edu'
p388
sbsS'amb2310'
p389
(ipeople
Student
p390
(dp391
g4
g389
sg5
S'Andrea'
p392
sg7
S'Bell, Andrea'
p393
sg9
S'amb2310@columbia.edu'
p394
sbsS'esm2167'
p395
(ipeople
Student
p396
(dp397
g4
g395
sg5
S'Erica'
p398
sg7
S'Mezias, Erica Stephanie'
p399
sg9
S'esm2167@barnard.edu'
p400
sbsS'jw3046'
p401
(ipeople
Student
p402
(dp403
g4
g401
sg5
S'Jee'
p404
sg7
S'Wang, Jee Hyun'
p405
sg9
S'jw3046@columbia.edu'
p406
sbsS'ajc2212'
p407
(ipeople
Student
p408
(dp409
g4
g407
sg5
S'Avi'
p410
sg7
S'Chad-Friedman, Avi Jacob'
p411
sg9
S'ajc2212@columbia.edu'
p412
sbsS'sjl2185'
p413
(ipeople
Student
p414
(dp415
g4
g413
sg5
S'Sophie'
p416
sg7
S'Lucy, Sophie Jean'
p417
sg9
S'sjl2185@barnard.edu'
p418
sbsS'wkc2114'
p419
(ipeople
Student
p420
(dp421
g4
g419
sg5
S'William'
p422
sg7
S'Crane, William Kingsley'
p423
sg9
S'wkc2114@columbia.edu'
p424
sbsS'kkx2101'
p425
(ipeople
Student
p426
(dp427
g4
g425
sg5
S'Kevin'
p428
sg7
S'Xiao, Kevin Kaifan'
p429
sg9
S'kkx2101@columbia.edu'
p430
sbsS'clb2170'
p431
(ipeople
Student
p432
(dp433
g4
g431
sg5
S'Colton'
p434
sg7
S'Bishop, Colton Lee'
p435
sg9
S'clb2170@columbia.edu'
p436
sbsS'hkd2108'
p437
(ipeople
Student
p438
(dp439
g4
g437
sg5
S'Henry'
p440
sg7
S'Deng, Henry Kai'
p441
sg9
S'hkd2108@columbia.edu'
p442
sbsS'ap3109'
p443
(ipeople
Student
p444
(dp445
g4
g443
sg5
S'Arnold'
p446
sg7
S'Phatraprasit, Arnold'
p447
sg9
S'ap3109@columbia.edu'
p448
sbsS'sbm2164'
p449
(ipeople
Student
p450
(dp451
g4
g449
sg5
S'Syed'
p452
sg7
S'Mohsin, Syed Baqir'
p453
sg9
S'sbm2164@columbia.edu'
p454
sbsS'sdp2137'
p455
(ipeople
Student
p456
(dp457
g4
g455
sg5
S'Savvas'
p458
sg7
S'Petridis, Savvas Dimitrios'
p459
sg9
S'sdp2137@columbia.edu'
p460
sbsS'pas2171'
p461
(ipeople
Student
p462
(dp463
g4
g461
sg5
S'Pamela'
p464
sg7
S'Sanchez, Pamela Aimee'
p465
sg9
S'pas2171@columbia.edu'
p466
sbsS'rlg2161'
p467
(ipeople
Student
p468
(dp469
g4
g467
sg5
S'Ross'
p470
sg7
S'Gruber, Ross L'
p471
sg9
S'rlg2161@columbia.edu'
p472
sbsS'adc2153'
p473
(ipeople
Student
p474
(dp475
g4
g473
sg5
S'Abigail'
p476
sg7
S'Carras, Abigail Debra'
p477
sg9
S'adc2153@columbia.edu'
p478
sbsS'cds2152'
p479
(ipeople
Student
p480
(dp481
g4
g479
sg5
S'Cole'
p482
sg7
S'Stephens, Cole Darin'
p483
sg9
S'cds2152@columbia.edu'
p484
sbsS'kj2310'
p485
(ipeople
Student
p486
(dp487
g4
g485
sg5
S'Katherine'
p488
sg7
S'Jin, Katherine'
p489
sg9
S'kj2310@columbia.edu'
p490
sbsS'bwp2111'
p491
(ipeople
Student
p492
(dp493
g4
g491
sg5
S'Brett'
p494
sg7
S'Provance, Brett William'
p495
sg9
S'bwp2111@columbia.edu'
p496
sbsS'eeb2142'
p497
(ipeople
Student
p498
(dp499
g4
g497
sg5
S'Elijahu'
p500
sg7
S'Ben-Michael, Elijahu Eithan'
p501
sg9
S'eeb2142@columbia.edu'
p502
sbsS'jes2310'
p503
(ipeople
Student
p504
(dp505
g4
g503
sg5
S'John'
p506
sg7
S'Speyer, John Edward'
p507
sg9
S'jes2310@columbia.edu'
p508
sbsS'ss4354'
p509
(ipeople
Student
p510
(dp511
g4
g509
sg5
S'Serena'
p512
sg7
S'Shah-Simpson, Serena'
p513
sg9
S'ss4354@columbia.edu'
p514
sbsS'hk2718'
p515
(ipeople
Student
p516
(dp517
g4
g515
sg5
S'Haozheng'
p518
sg7
S'Kong, Haozheng'
p519
sg9
S'hk2718@columbia.edu'
p520
sbsS'gzb2102'
p521
(ipeople
Student
p522
(dp523
g4
g521
sg5
S'Gelila'
p524
sg7
S'Bekele, Gelila Zenebe'
p525
sg9
S'gzb2102@columbia.edu'
p526
sbsS'jx2218'
p527
(ipeople
Student
p528
(dp529
g4
g527
sg5
S'James'
p530
sg7
S'Xue, James'
p531
sg9
S'jx2218@columbia.edu'
p532
sbsS'srh2162'
p533
(ipeople
Student
p534
(dp535
g4
g533
sg5
S'Sarah'
p536
sg7
S'Harrington, Sarah Ruth Hannah Lou'
p537
sg9
S'srh2162@columbia.edu'
p538
sbsS'qdf2000'
p539
(ipeople
Student
p540
(dp541
g4
g539
sg5
S'Quinten'
p542
sg7
S'Farmer, Quinten Dean'
p543
sg9
S'qdf2000@columbia.edu'
p544
sbsS'ams2429'
p545
(ipeople
Student
p546
(dp547
g4
g545
sg5
S'Allison'
p548
sg7
S'Sawyer, Allison Mary'
p549
sg9
S'ams2429@columbia.edu'
p550
sbsS'skc2143'
p551
(ipeople
Student
p552
(dp553
g4
g551
sg5
S'Steve'
p554
sg7
S'Cheruiyot, Steve Kipruto'
p555
sg9
S'skc2143@columbia.edu'
p556
sbsS'xl2355'
p557
(ipeople
Student
p558
(dp559
g4
g557
sg5
S'Xiaomeng'
p560
sg7
S'Luo, Xiaomeng'
p561
sg9
S'xl2355@columbia.edu'
p562
sbsS'spk2129'
p563
(ipeople
Student
p564
(dp565
g4
g563
sg5
S'Sean'
p566
sg7
S'Kilgarriff, Sean Patrick'
p567
sg9
S'spk2129@columbia.edu'
p568
sbsS'iyz2101'
p569
(ipeople
Student
p570
(dp571
g4
g569
sg5
S'Ivy'
p572
sg7
S'Zheng, Ivy Yuan Yuan'
p573
sg9
S'iyz2101@columbia.edu'
p574
sbsS'mef2196'
p575
(ipeople
Student
p576
(dp577
g4
g575
sg5
S'Michael'
p578
sg7
S'Fisher, Michael E'
p579
sg9
S'mef2196@columbia.edu'
p580
sbsS'jdl2164'
p581
(ipeople
Student
p582
(dp583
g4
g581
sg5
S'Joseph'
p584
sg7
S'Liberman, Joseph Daniel'
p585
sg9
S'jdl2164@columbia.edu'
p586
sbsS'it2216'
p587
(ipeople
Student
p588
(dp589
g4
g587
sg5
S'Ignacio'
p590
sg7
S'Torras, Ignacio'
p591
sg9
S'it2216@columbia.edu'
p592
sbsS'kak2211'
p593
(ipeople
Student
p594
(dp595
g4
g593
sg5
S'Kunal'
p596
sg7
S'Kamath, Kunal Anantha'
p597
sg9
S'kak2211@columbia.edu'
p598
sbsS'man2154'
p599
(ipeople
Student
p600
(dp601
g4
g599
sg5
S'Marco'
p602
sg7
S'Nedungadi, Marco Antonio'
p603
sg9
S'man2154@columbia.edu'
p604
sbsS'vc2351'
p605
(ipeople
Student
p606
(dp607
g4
g605
sg5
S'Victoria'
p608
sg7
S'Campa, Victoria Wisbaum'
p609
sg9
S'vc2351@barnard.edu'
p610
sbsS'glc2121'
p611
(ipeople
Student
p612
(dp613
g4
g611
sg5
S'Gregory'
p614
sg7
S'Chen, Gregory Luan'
p615
sg9
S'glc2121@columbia.edu'
p616
sbsS'twa2108'
p617
(ipeople
Student
p618
(dp619
g4
g617
sg5
S'Theodore'
p620
sg7
S'Ahlfeld, Theodore Wesley'
p621
sg9
S'twa2108@columbia.edu'
p622
sbsS'drp2121'
p623
(ipeople
Student
p624
(dp625
g4
g623
sg5
S'Diego'
p626
sg7
S'Paris, Diego Rafael'
p627
sg9
S'drp2121@columbia.edu'
p628
sbsS'mkh2145'
p629
(ipeople
Student
p630
(dp631
g4
g629
sg5
S'Michelle'
p632
sg7
S'Haines, Michelle Katherine'
p633
sg9
S'mkh2145@columbia.edu'
p634
sbsS'ehs2146'
p635
(ipeople
Student
p636
(dp637
g4
g635
sg5
S'Erman'
p638
sg7
S'Sener, Erman Hakan'
p639
sg9
S'ehs2146@columbia.edu'
p640
sbsS'sdl2123'
p641
(ipeople
Student
p642
(dp643
g4
g641
sg5
S'Shaine'
p644
sg7
S'Leibowitz, Shaine Dale'
p645
sg9
S'sdl2123@columbia.edu'
p646
sbsS'mc3549'
p647
(ipeople
Student
p648
(dp649
g4
g647
sg5
S'Mun'
p650
sg7
S'Chik, Mun Shin'
p651
sg9
S'mc3549@columbia.edu'
p652
sbsS'mlh2196'
p653
(ipeople
Student
p654
(dp655
g4
g653
sg5
S'Matthew'
p656
sg7
S'Haigh, Matthew Louis'
p657
sg9
S'mlh2196@columbia.edu'
p658
sbsS'mlh2197'
p659
(ipeople
Student
p660
(dp661
g4
g659
sg5
S'Melanie'
p662
sg7
S'Hsu, Melanie L'
p663
sg9
S'mlh2197@columbia.edu'
p664
sbsS'ss4347'
p665
(ipeople
Student
p666
(dp667
g4
g665
sg5
S'Sneha'
p668
sg7
S'Subramaniam, Sneha'
p669
sg9
S'ss4347@columbia.edu'
p670
sbsS'klb2180'
p671
(ipeople
Student
p672
(dp673
g4
g671
sg5
S'Katherine'
p674
sg7
S'Brea, Katherine Lindsay'
p675
sg9
S'klb2180@barnard.edu'
p676
sbsS'mw2852'
p677
(ipeople
Student
p678
(dp679
g4
g677
sg5
S'Maximilian'
p680
sg7
S'Weber, Maximilian'
p681
sg9
S'mw2852@columbia.edu'
p682
sbsS'jjv2121'
p683
(ipeople
Student
p684
(dp685
g4
g683
sg5
S'Jesse'
p686
sg7
S'Van Marter, Jesse John'
p687
sg9
S'jjv2121@columbia.edu'
p688
sbsS'sbb2151'
p689
(ipeople
Student
p690
(dp691
g4
g689
sg5
S'Sean'
p692
sg7
S'Ballinger, Sean Bozkurt'
p693
sg9
S'sbb2151@columbia.edu'
p694
sbsS'mkk2139'
p695
(ipeople
Student
p696
(dp697
g4
g695
sg5
S'Mariel'
p698
sg7
S'Kim, Mariel Keeju'
p699
sg9
S'mkk2139@barnard.edu'
p700
sbsS'sl3497'
p701
(ipeople
Student
p702
(dp703
g4
g701
sg5
S'Sean'
p704
sg7
S'Liu, Sean'
p705
sg9
S'sl3497@columbia.edu'
p706
sbsS'dcs2153'
p707
(ipeople
Student
p708
(dp709
g4
g707
sg5
S'David'
p710
sg7
S'Streid, David C'
p711
sg9
S'dcs2153@columbia.edu'
p712
sbsS'yz2426'
p713
(ipeople
Student
p714
(dp715
g4
g713
sg5
S'Yin'
p716
sg7
S'Zhao, Yin'
p717
sg9
S'yz2426@columbia.edu'
p718
sbsS'ccv2112'
p719
(ipeople
Student
p720
(dp721
g4
g719
sg5
S'Christian'
p722
sg7
S'Vivadelli, Christian Collier Domenic'
p723
sg9
S'ccv2112@columbia.edu'
p724
sbsS'aps2181'
p725
(ipeople
Student
p726
(dp727
g4
g725
sg5
S'Anthony'
p728
sg7
S'Simola, Anthony Peter'
p729
sg9
S'aps2181@columbia.edu'
p730
sbsS'kv2253'
p731
(ipeople
Student
p732
(dp733
g4
g731
sg5
S'Kanika'
p734
sg7
S'Verma, Kanika'
p735
sg9
S'kv2253@columbia.edu'
p736
sbsS'amg2300'
p737
(ipeople
Student
p738
(dp739
g4
g737
sg5
S'Alex'
p740
sg7
S'Gopinathan, Alex M'
p741
sg9
S'amg2300@columbia.edu'
p742
sbsS'avn2109'
p743
(ipeople
Student
p744
(dp745
g4
g743
sg5
S'Aleksander'
p746
sg7
S'Navratil, Aleksander Vladislav'
p747
sg9
S'avn2109@columbia.edu'
p748
sbsS'ars2212'
p749
(ipeople
Student
p750
(dp751
g4
g749
sg5
S'Akshay'
p752
sg7
S'Shah, Akshay Ramesh'
p753
sg9
S'ars2212@columbia.edu'
p754
sbsS'rkg2115'
p755
(ipeople
Student
p756
(dp757
g4
g755
sg5
S'Rajan'
p758
sg7
S'Gupta, Rajan Kumar'
p759
sg9
S'rkg2115@columbia.edu'
p760
sbsS'sg2939'
p761
(ipeople
Student
p762
(dp763
g4
g761
sg5
S'Sally'
p764
sg7
S'Gao, Sally'
p765
sg9
S'sg2939@columbia.edu'
p766
sbsS'nag2133'
p767
(ipeople
Student
p768
(dp769
g4
g767
sg5
S'Nancy'
p770
sg7
S'Gonzalez, Nancy Araceli'
p771
sg9
S'nag2133@columbia.edu'
p772
sbsS'sjg2174'
p773
(ipeople
Student
p774
(dp775
g4
g773
sg5
S'Sean'
p776
sg7
S'Garvey, Sean J'
p777
sg9
S'sjg2174@columbia.edu'
p778
sbsS'ym2418'
p779
(ipeople
Student
p780
(dp781
g4
g779
sg5
S'Yuval'
p782
sg7
S'Millet, Yuval'
p783
sg9
S'ym2418@columbia.edu'
p784
sbsS'mzt2102'
p785
(ipeople
Student
p786
(dp787
g4
g785
sg5
S'Morgan'
p788
sg7
S'Thompson, Morgan Zindziswa'
p789
sg9
S'mzt2102@columbia.edu'
p790
sbsS'kec2156'
p791
(ipeople
Student
p792
(dp793
g4
g791
sg5
S'Katharine'
p794
sg7
S'Celentano, Katharine Elizabeth'
p795
sg9
S'kec2156@columbia.edu'
p796
sbsS'arc2183'
p797
(ipeople
Student
p798
(dp799
g4
g797
sg5
S'Anurag'
p800
sg7
S'Chinepalli, Anurag Reddy'
p801
sg9
S'arc2183@columbia.edu'
p802
sbsS'syr2105'
p803
(ipeople
Student
p804
(dp805
g4
g803
sg5
S'Stephanie'
p806
sg7
S'Rodriguez, Stephanie Yolanda'
p807
sg9
S'syr2105@columbia.edu'
p808
sbsS'lcg2132'
p809
(ipeople
Student
p810
(dp811
g4
g809
sg5
S'Lennart'
p812
sg7
S'Graf von Hardenberg, Lennart Carl Hanko'
p813
sg9
S'lcg2132@columbia.edu'
p814
sbsS'zwg2102'
p815
(ipeople
Student
p816
(dp817
g4
g815
sg5
S'Zachery'
p818
sg7
S'Goodwin, Zachery Willie Donati'
p819
sg9
S'zwg2102@columbia.edu'
p820
sbsS'lcc2156'
p821
(ipeople
Student
p822
(dp823
g4
g821
sg5
S'Laura'
p824
sg7
S'Carandang, Laura Casey'
p825
sg9
S'lcc2156@columbia.edu'
p826
sbsS'as4529'
p827
(ipeople
Student
p828
(dp829
g4
g827
sg5
S'Anuj'
p830
sg7
S'Sharma, Anuj'
p831
sg9
S'as4529@columbia.edu'
p832
sbsS'mw2907'
p833
(ipeople
Student
p834
(dp835
g4
g833
sg5
S'Mengyu'
p836
sg7
S'Wu, Mengyu'
p837
sg9
S'mw2907@columbia.edu'
p838
sbsS'dje2125'
p839
(ipeople
Student
p840
(dp841
g4
g839
sg5
S'Daniel'
p842
sg7
S'Echikson, Daniel Joseph'
p843
sg9
S'dje2125@columbia.edu'
p844
sbsS'smc2221'
p845
(ipeople
Student
p846
(dp847
g4
g845
sg5
S'Sarah'
p848
sg7
S'Charles, Sarah Morgan'
p849
sg9
S'smc2221@columbia.edu'
p850
sbsS'aoc2103'
p851
(ipeople
Student
p852
(dp853
g4
g851
sg5
S'Augustus'
p854
sg7
S'Craig, Augustus Oliver'
p855
sg9
S'aoc2103@columbia.edu'
p856
sbsS'jrc2139'
p857
(ipeople
Student
p858
(dp859
g4
g857
sg5
S'John'
p860
sg7
S'Castronuovo, John Robert'
p861
sg9
S'jrc2139@columbia.edu'
p862
sbsS'leo2118'
p863
(ipeople
Student
p864
(dp865
g4
g863
sg5
S'Lauren'
p866
sg7
S"O'Connor, Lauren Elizabeth"
p867
sg9
S'leo2118@columbia.edu'
p868
sbsS'rl2618'
p869
(ipeople
Student
p870
(dp871
g4
g869
sg5
S'Rachel'
p872
sg7
S'Lowe, Rachel'
p873
sg9
S'rl2618@barnard.edu'
p874
sbsS'cl3084'
p875
(ipeople
Student
p876
(dp877
g4
g875
sg5
S'Chan'
p878
sg7
S'Lee, Chan Mi'
p879
sg9
S'cl3084@columbia.edu'
p880
sbsS'mz2397'
p881
(ipeople
Student
p882
(dp883
g4
g881
sg5
S'Mingqi'
p884
sg7
S'Zhu, Mingqi'
p885
sg9
S'mz2397@columbia.edu'
p886
sbsS'cz2246'
p887
(ipeople
Student
p888
(dp889
g4
g887
sg5
S'Cem'
p890
sg7
S'Zorlular, Cem'
p891
sg9
S'cz2246@columbia.edu'
p892
sbsS'asd2157'
p893
(ipeople
Student
p894
(dp895
g4
g893
sg5
S'Amar'
p896
sg7
S'Dhingra, Amar Singh'
p897
sg9
S'asd2157@columbia.edu'
p898
sbsS'yk2553'
p899
(ipeople
Student
p900
(dp901
g4
g899
sg5
S'Yunsung'
p902
sg7
S'Kim, Yunsung'
p903
sg9
S'yk2553@columbia.edu'
p904
sbsS'rlc2160'
p905
(ipeople
Student
p906
(dp907
g4
g905
sg5
S'Robert'
p908
sg7
S'Cornacchia, Robert Louis'
p909
sg9
S'rlc2160@columbia.edu'
p910
sbsS'rss2192'
p911
(ipeople
Student
p912
(dp913
g4
g911
sg5
S'Rebecca'
p914
sg7
S'Stussman, Rebecca Susan'
p915
sg9
S'rss2192@columbia.edu'
p916
sbsS'rb3002'
p917
(ipeople
Student
p918
(dp919
g4
g917
sg5
S'Rachel'
p920
sg7
S'Brodsky, Rachel'
p921
sg9
S'rb3002@columbia.edu'
p922
sbsS'nj2290'
p923
(ipeople
Student
p924
(dp925
g4
g923
sg5
S'Nadia'
p926
sg7
S'Jabbar, Nadia'
p927
sg9
S'nj2290@columbia.edu'
p928
sbsS'yx2215'
p929
(ipeople
Student
p930
(dp931
g4
g929
sg5
S'Yuxuan'
p932
sg7
S'Xia, Yuxuan'
p933
sg9
S'yx2215@columbia.edu'
p934
sbsS'arl2155'
p935
(ipeople
Student
p936
(dp937
g4
g935
sg5
S'Ayelet'
p938
sg7
S'Lobel, Ayelet Rachel'
p939
sg9
S'arl2155@barnard.edu'
p940
sbsS'ie2165'
p941
(ipeople
Student
p942
(dp943
g4
g941
sg5
S'Ilker'
p944
sg7
S'Eraslan, Ilker'
p945
sg9
S'ie2165@columbia.edu'
p946
sbsS'jl3954'
p947
(ipeople
Student
p948
(dp949
g4
g947
sg5
S'Ju-Cheol'
p950
sg7
S'Lee, Ju-Cheol'
p951
sg9
S'jl3954@columbia.edu'
p952
sbsS'ak3533'
p953
(ipeople
Student
p954
(dp955
g4
g953
sg5
S'Alisa'
p956
sg7
S'Krivokapic, Alisa'
p957
sg9
S'ak3533@columbia.edu'
p958
sbsS'oa2219'
p959
(ipeople
Student
p960
(dp961
g4
g959
sg5
S'Omer'
p962
sg7
S'Alaettinoglu, Omer'
p963
sg9
S'oa2219@columbia.edu'
p964
sbsS'mw2608'
p965
(ipeople
Student
p966
(dp967
g4
g965
sg5
S'Michael'
p968
sg7
S'Wang, Michael Yaocheng'
p969
sg9
S'mw2608@columbia.edu'
p970
sbsS'iz2140'
p971
(ipeople
Student
p972
(dp973
g4
g971
sg5
S'Iris'
p974
sg7
S'Zhang, Iris'
p975
sg9
S'iz2140@columbia.edu'
p976
sbsS'vc2305'
p977
(ipeople
Student
p978
(dp979
g4
g977
sg5
S'Valinda'
p980
sg7
S'Chan, Valinda'
p981
sg9
S'vc2305@barnard.edu'
p982
sbsS'ab3750'
p983
(ipeople
Student
p984
(dp985
g4
g983
sg5
S'Anfal'
p986
sg7
S'Boussayoud, Anfal'
p987
sg9
S'ab3750@barnard.edu'
p988
sbsS'jgv2108'
p989
(ipeople
Student
p990
(dp991
g4
g989
sg5
S'Jessica'
p992
sg7
S'Valarezo, Jessica Grace'
p993
sg9
S'jgv2108@columbia.edu'
p994
sbsS'hc2641'
p995
(ipeople
Student
p996
(dp997
g4
g995
sg5
S'Hsuan-Wei'
p998
sg7
S'Chen, Hsuan-Wei'
p999
sg9
S'hc2641@columbia.edu'
p1000
sbsS'ip2257'
p1001
(ipeople
Student
p1002
(dp1003
g4
g1001
sg5
S'Ivy'
p1004
sg7
S'Pan, Ivy'
p1005
sg9
S'ip2257@columbia.edu'
p1006
sbsS'amb2335'
p1007
(ipeople
Student
p1008
(dp1009
g4
g1007
sg5
S'Andrea'
p1010
sg7
S'Bonilla, Andrea Maria'
p1011
sg9
S'amb2335@columbia.edu'
p1012
sbsS'tcr2124'
p1013
(ipeople
Student
p1014
(dp1015
g4
g1013
sg5
S'Thomas'
p1016
sg7
S'Reidy, Thomas Carl'
p1017
sg9
S'tcr2124@columbia.edu'
p1018
sbsS'jf2608'
p1019
(ipeople
Student
p1020
(dp1021
g4
g1019
sg5
S'Johnny'
p1022
sg7
S'Fells, Johnny'
p1023
sg9
S'jf2608@columbia.edu'
p1024
sbsS'lkd2116'
p1025
(ipeople
Student
p1026
(dp1027
g4
g1025
sg5
S'Luc'
p1028
sg7
S'Davidson, Luc Kearns'
p1029
sg9
S'lkd2116@columbia.edu'
p1030
sbsS'jk3556'
p1031
(ipeople
Student
p1032
(dp1033
g4
g1031
sg5
S'Jason'
p1034
sg7
S'Kang, Jason'
p1035
sg9
S'jk3556@columbia.edu'
p1036
sbsS'bie2103'
p1037
(ipeople
Student
p1038
(dp1039
g4
g1037
sg5
S'Benjamin'
p1040
sg7
S'Edelstein, Benjamin Isaac'
p1041
sg9
S'bie2103@columbia.edu'
p1042
sbsS'klm2190'
p1043
(ipeople
Student
p1044
(dp1045
g4
g1043
sg5
S'Kimberly'
p1046
sg7
S'Milam, Kimberly Lauren'
p1047
sg9
S'klm2190@columbia.edu'
p1048
sbsS'jz2477'
p1049
(ipeople
Student
p1050
(dp1051
g4
g1049
sg5
S'Jingtong'
p1052
sg7
S'Zhao, Jingtong'
p1053
sg9
S'jz2477@columbia.edu'
p1054
sbsS'gg2500'
p1055
(ipeople
Student
p1056
(dp1057
g4
g1055
sg5
S'Gabriella'
p1058
sg7
S'Gilbert, Gabriella'
p1059
sg9
S'gg2500@columbia.edu'
p1060
sbsS'jlt2159'
p1061
(ipeople
Student
p1062
(dp1063
g4
g1061
sg5
S'John'
p1064
sg7
S'Timoney-Gomez, John Lucas'
p1065
sg9
S'jlt2159@columbia.edu'
p1066
sbsS'blr2132'
p1067
(ipeople
Student
p1068
(dp1069
g4
g1067
sg5
S'Brendan'
p1070
sg7
S'Rakphongphairoj, Brendan Limn'
p1071
sg9
S'blr2132@columbia.edu'
p1072
sbsS'woo2000'
p1073
(ipeople
Student
p1074
(dp1075
g4
g1073
sg5
S'William'
p1076
sg7
S'Ogallo, William Otieno'
p1077
sg9
S'woo2000@columbia.edu'
p1078
sbsS'jyk2132'
p1079
(ipeople
Student
p1080
(dp1081
g4
g1079
sg5
S'James'
p1082
sg7
S'Kim, James Young'
p1083
sg9
S'jyk2132@columbia.edu'
p1084
sbsS'jpf2141'
p1085
(ipeople
Student
p1086
(dp1087
g4
g1085
sg5
S'Josh'
p1088
sg7
S'Fram, Josh Peter'
p1089
sg9
S'jpf2141@columbia.edu'
p1090
sbsS'axm2000'
p1091
(ipeople
Student
p1092
(dp1093
g4
g1091
sg5
S'Anna'
p1094
sg7
S'Ming, Anna Xi'
p1095
sg9
S'axm2000@columbia.edu'
p1096
sbsS'pmq2101'
p1097
(ipeople
Student
p1098
(dp1099
g4
g1097
sg5
S'Padraic'
p1100
sg7
S'Quinn, Padraic Michael'
p1101
sg9
S'pmq2101@columbia.edu'
p1102
sbsS'ajb2233'
p1103
(ipeople
Student
p1104
(dp1105
g4
g1103
sg5
S'Alexander'
p1106
sg7
S'Barkume, Alexander James'
p1107
sg9
S'ajb2233@columbia.edu'
p1108
sbs.